; Function Attrs: mustprogress nofree norecurse nosync nounwind sspstrong willreturn memory(argmem: read) uwtable
define internal range(i64 -137438952952, 137438953929) i64 @ractor_memsize(ptr noundef readonly captures(none) %0) #6 {
  %2 = getelementptr i8, ptr %0, i64 104
  %.val = load i32, ptr %2, align 8, !tbaa !85
  %3 = sext i32 %.val to i64
  %4 = getelementptr i8, ptr %0, i64 136
  %.val3 = load i32, ptr %4, align 8, !tbaa !85
  %5 = sext i32 %.val3 to i64
  %6 = add nsw i64 %5, %3
  %7 = shl nsw i64 %6, 5
  %8 = add nsw i64 %7, 520
  ret i64 %8
}